; Function Attrs: mustprogress uwtable
define void @_ZNK6casadi21GetNonzerosParamSlice14serialize_bodyERNS_17SerializingStreamE(ptr noundef nonnull align 8 dereferenceable(88) %0, ptr noundef nonnull align 8 dereferenceable(73) %1) unnamed_addr #3 align 2 personality ptr @__gxx_personality_v0 {
  %3 = alloca %"class.std::__cxx11::basic_string", align 8
  %4 = alloca %"class.std::allocator.2", align 1
  tail call void @_ZNK6casadi6MXNode14serialize_bodyERNS_17SerializingStreamE(ptr noundef nonnull align 8 dereferenceable(64) %0, ptr noundef nonnull align 8 dereferenceable(73) %1)
  call void @_ZNSaIcEC1Ev(ptr noundef nonnull align 1 dereferenceable(1) %4) #18
  %5 = invoke noundef ptr @_ZNSt7__cxx1112basic_stringIcSt11char_traitsIcESaIcEE13_M_local_dataEv(ptr noundef nonnull align 8 dereferenceable(32) %3)
          to label %.noexc unwind label %13

.noexc:                                           ; preds = %2
  invoke void @_ZNSt7__cxx1112basic_stringIcSt11char_traitsIcESaIcEE12_Alloc_hiderC1EPcRKS3_(ptr noundef nonnull align 8 dereferenceable(8) %3, ptr noundef %5, ptr noundef nonnull align 1 dereferenceable(1) %4)
          to label %.noexc6 unwind label %13

.noexc6:                                          ; preds = %.noexc
  invoke void @_ZNSt7__cxx1112basic_stringIcSt11char_traitsIcESaIcEE12_M_constructIPKcEEvT_S8_St20forward_iterator_tag(ptr noundef nonnull align 8 dereferenceable(32) %3, ptr noundef nonnull @.str.56, ptr noundef nonnull getelementptr inbounds ([29 x i8], ptr @.str.56, i64 0, i64 28))
          to label %_ZNSt7__cxx1112basic_stringIcSt11char_traitsIcESaIcEEC2IS3_EEPKcRKS3_.exit unwind label %6

6:                                                ; preds = %.noexc6
  %7 = landingpad { ptr, i32 }
          cleanup
  call void @_ZNSaIcED2Ev(ptr noundef nonnull align 1 dereferenceable(1) %3) #18
  br label %.body

_ZNSt7__cxx1112basic_stringIcSt11char_traitsIcESaIcEEC2IS3_EEPKcRKS3_.exit: ; preds = %.noexc6
  %8 = getelementptr inbounds i8, ptr %0, i64 64
  %9 = getelementptr inbounds i8, ptr %1, i64 72
  %10 = load i8, ptr %9, align 8
  %11 = and i8 %10, 1
  %.not.i = icmp eq i8 %11, 0
  br i1 %.not.i, label %.noexc7, label %12

12:                                               ; preds = %_ZNSt7__cxx1112basic_stringIcSt11char_traitsIcESaIcEEC2IS3_EEPKcRKS3_.exit
  invoke void @_ZN6casadi17SerializingStream4packERKNSt7__cxx1112basic_stringIcSt11char_traitsIcESaIcEEE(ptr noundef nonnull align 8 dereferenceable(73) %1, ptr noundef nonnull align 8 dereferenceable(32) %3)
          to label %.noexc7 unwind label %15

.noexc7:                                          ; preds = %12, %_ZNSt7__cxx1112basic_stringIcSt11char_traitsIcESaIcEEC2IS3_EEPKcRKS3_.exit
  invoke void @_ZN6casadi17SerializingStream4packERKNS_5SliceE(ptr noundef nonnull align 8 dereferenceable(73) %1, ptr noundef nonnull align 8 dereferenceable(24) %8)
          to label %_ZN6casadi17SerializingStream4packINS_5SliceEEEvRKNSt7__cxx1112basic_stringIcSt11char_traitsIcESaIcEEERKT_.exit unwind label %15

_ZN6casadi17SerializingStream4packINS_5SliceEEEvRKNSt7__cxx1112basic_stringIcSt11char_traitsIcESaIcEEERKT_.exit: ; preds = %.noexc7
  call void @_ZNSt7__cxx1112basic_stringIcSt11char_traitsIcESaIcEED1Ev(ptr noundef nonnull align 8 dereferenceable(32) %3) #18
  call void @_ZNSaIcED1Ev(ptr noundef nonnull align 1 dereferenceable(1) %4) #18
  ret void

13:                                               ; preds = %.noexc, %2
  %14 = landingpad { ptr, i32 }
          cleanup
  br label %.body

15:                                               ; preds = %.noexc7, %12
  %16 = landingpad { ptr, i32 }
          cleanup
  call void @_ZNSt7__cxx1112basic_stringIcSt11char_traitsIcESaIcEED1Ev(ptr noundef nonnull align 8 dereferenceable(32) %3) #18
  br label %.body

.body:                                            ; preds = %13, %6, %15
  %.pn = phi { ptr, i32 } [ %16, %15 ], [ %14, %13 ], [ %7, %6 ]
  call void @_ZNSaIcED1Ev(ptr noundef nonnull align 1 dereferenceable(1) %4) #18
  resume { ptr, i32 } %.pn
}